target datalayout = "e-m:e-p270:32:32-p271:32:32-p272:64:64-i64:64-i128:128-f80:128-n8:16:32:64-S128"
target triple = "x86_64-pc-linux-gnu"

%struct.strbuf = type { i64, i64, ptr }
%struct.refspec_item = type { i8, ptr, ptr, ptr }

@__const.valid_remote_name.refspec = private unnamed_addr constant %struct.strbuf { i64 0, i64 0, ptr @strbuf_slopbuf }, align 8
@.str.1 = private unnamed_addr constant [37 x i8] c"refs/heads/test:refs/remotes/%s/test\00", align 1

; Function Attrs: nounwind uwtable
define dso_local void @refspec_item_clear(ptr noundef %0) #0 {
  %2 = alloca ptr, align 8
  store ptr %0, ptr %2, align 8, !tbaa !4
  br label %3

3:                                                ; preds = %1
  %4 = load ptr, ptr %2, align 8, !tbaa !4
  %5 = getelementptr inbounds nuw %struct.refspec_item, ptr %4, i32 0, i32 1
  %6 = load ptr, ptr %5, align 8, !tbaa !19
  call void @free(ptr noundef %6) #10
  %7 = load ptr, ptr %2, align 8, !tbaa !4
  %8 = getelementptr inbounds nuw %struct.refspec_item, ptr %7, i32 0, i32 1
  store ptr null, ptr %8, align 8, !tbaa !19
  br label %9

9:                                                ; preds = %3
  br label %10

10:                                               ; preds = %9
  %11 = load ptr, ptr %2, align 8, !tbaa !4
  %12 = getelementptr inbounds nuw %struct.refspec_item, ptr %11, i32 0, i32 2
  %13 = load ptr, ptr %12, align 8, !tbaa !18
  call void @free(ptr noundef %13) #10
  %14 = load ptr, ptr %2, align 8, !tbaa !4
  %15 = getelementptr inbounds nuw %struct.refspec_item, ptr %14, i32 0, i32 2
  store ptr null, ptr %15, align 8, !tbaa !18
  br label %16

16:                                               ; preds = %10
  br label %17

17:                                               ; preds = %16
  %18 = load ptr, ptr %2, align 8, !tbaa !4
  %19 = getelementptr inbounds nuw %struct.refspec_item, ptr %18, i32 0, i32 3
  %20 = load ptr, ptr %19, align 8, !tbaa !13
  call void @free(ptr noundef %20) #10
  %21 = load ptr, ptr %2, align 8, !tbaa !4
  %22 = getelementptr inbounds nuw %struct.refspec_item, ptr %21, i32 0, i32 3
  store ptr null, ptr %22, align 8, !tbaa !13
  br label %23

23:                                               ; preds = %17
  %24 = load ptr, ptr %2, align 8, !tbaa !4
  %25 = load i8, ptr %24, align 8
  %26 = and i8 %25, -2
  %27 = or i8 %26, 0
  store i8 %27, ptr %24, align 8
  %28 = load ptr, ptr %2, align 8, !tbaa !4
  %29 = load i8, ptr %28, align 8
  %30 = and i8 %29, -3
  %31 = or i8 %30, 0
  store i8 %31, ptr %28, align 8
  %32 = load ptr, ptr %2, align 8, !tbaa !4
  %33 = load i8, ptr %32, align 8
  %34 = and i8 %33, -5
  %35 = or i8 %34, 0
  store i8 %35, ptr %32, align 8
  %36 = load ptr, ptr %2, align 8, !tbaa !4
  %37 = load i8, ptr %36, align 8
  %38 = and i8 %37, -9
  %39 = or i8 %38, 0
  store i8 %39, ptr %36, align 8
  ret void
}

; Function Attrs: nounwind uwtable
define dso_local i32 @valid_fetch_refspec(ptr noundef %0) #0 {
  %2 = alloca ptr, align 8
  %3 = alloca %struct.refspec_item, align 8
  %4 = alloca i32, align 4
  store ptr %0, ptr %2, align 8, !tbaa !9
  call void @llvm.lifetime.start.p0(i64 32, ptr %3) #10
  call void @llvm.lifetime.start.p0(i64 4, ptr %4) #10
  %5 = load ptr, ptr %2, align 8, !tbaa !9
  %6 = call i32 @refspec_item_init(ptr noundef %3, ptr noundef %5, i32 noundef 1)
  store i32 %6, ptr %4, align 4, !tbaa !11
  call void @refspec_item_clear(ptr noundef %3)
  %7 = load i32, ptr %4, align 4, !tbaa !11
  call void @llvm.lifetime.end.p0(i64 4, ptr %4) #10
  call void @llvm.lifetime.end.p0(i64 32, ptr %3) #10
  ret i32 %7
}

; Function Attrs: nounwind uwtable
define dso_local i32 @valid_remote_name(ptr noundef %0) #0 {
  %2 = alloca ptr, align 8
  %3 = alloca i32, align 4
  %4 = alloca %struct.strbuf, align 8
  store ptr %0, ptr %2, align 8, !tbaa !9
  call void @llvm.lifetime.start.p0(i64 4, ptr %3) #10
  call void @llvm.lifetime.start.p0(i64 24, ptr %4) #10
  call void @llvm.memcpy.p0.p0.i64(ptr align 8 %4, ptr align 8 @__const.valid_remote_name.refspec, i64 24, i1 false)
  %5 = load ptr, ptr %2, align 8, !tbaa !9
  call void (ptr, ptr, ...) @strbuf_addf(ptr noundef %4, ptr noundef @.str.1, ptr noundef %5)
  %6 = getelementptr inbounds nuw %struct.strbuf, ptr %4, i32 0, i32 2
  %7 = load ptr, ptr %6, align 8, !tbaa !56
  %8 = call i32 @valid_fetch_refspec(ptr noundef %7)
  store i32 %8, ptr %3, align 4, !tbaa !11
  call void @strbuf_release(ptr noundef %4)
  %9 = load i32, ptr %3, align 4, !tbaa !11
  call void @llvm.lifetime.end.p0(i64 24, ptr %4) #10
  call void @llvm.lifetime.end.p0(i64 4, ptr %3) #10
  ret i32 %9
}