; Function Attrs: nounwind uwtable
define dso_local range(i32 0, 2) i32 @valid_remote_name(ptr noundef %0) local_unnamed_addr #0 {
  %2 = alloca %struct.refspec_item, align 8
  %3 = alloca %struct.strbuf, align 8
  call void @llvm.lifetime.start.p0(i64 24, ptr nonnull %3) #13
  call void @llvm.memcpy.p0.p0.i64(ptr noundef nonnull align 8 dereferenceable(24) %3, ptr noundef nonnull align 8 dereferenceable(24) @__const.valid_remote_name.refspec, i64 24, i1 false)
  call void (ptr, ptr, ...) @strbuf_addf(ptr noundef nonnull %3, ptr noundef nonnull @.str.1, ptr noundef %0) #13
  %4 = getelementptr inbounds nuw i8, ptr %3, i64 16
  %5 = load ptr, ptr %4, align 8, !tbaa !50
  call void @llvm.lifetime.start.p0(i64 32, ptr nonnull %2) #13
  %6 = call i32 @refspec_item_init(ptr noundef nonnull %2, ptr noundef %5, i32 noundef 1)
  %7 = getelementptr inbounds nuw i8, ptr %2, i64 8
  %8 = load ptr, ptr %7, align 8, !tbaa !13
  call void @free(ptr noundef %8) #13
  %9 = getelementptr inbounds nuw i8, ptr %2, i64 16
  %10 = load ptr, ptr %9, align 8, !tbaa !12
  call void @free(ptr noundef %10) #13
  %11 = getelementptr inbounds nuw i8, ptr %2, i64 24
  %12 = load ptr, ptr %11, align 8, !tbaa !4
  call void @free(ptr noundef %12) #13
  call void @llvm.lifetime.end.p0(i64 32, ptr nonnull %2) #13
  call void @strbuf_release(ptr noundef nonnull %3) #13
  call void @llvm.lifetime.end.p0(i64 24, ptr nonnull %3) #13
  ret i32 %6
}